; Function Attrs: mustprogress nofree norecurse nosync nounwind willreturn memory(readwrite, inaccessiblemem: none) uwtable
define internal void @_window_moved_to_rect(ptr readnone captures(none) %0, ptr noundef readonly captures(none) %1, ptr noundef readonly captures(none) %2, i32 %3, i32 %4, ptr readnone captures(none) %5) #6 {
  %7 = getelementptr inbounds nuw i8, ptr %2, i64 4
  %8 = load i32, ptr %7, align 4, !tbaa !92
  %9 = getelementptr inbounds nuw i8, ptr %1, i64 4
  %10 = load i32, ptr %9, align 4, !tbaa !92
  %11 = sub i32 %8, %10
  %12 = load ptr, ptr getelementptr inbounds nuw (i8, ptr @darktable, i64 128), align 8, !tbaa !67
  %13 = getelementptr inbounds nuw i8, ptr %12, i64 52
  %14 = load i32, ptr %13, align 4, !tbaa !93
  %15 = add nsw i32 %11, %14
  store i32 %15, ptr %13, align 4, !tbaa !93
  ret void
}